(dp0
(S'2016'
p1
S'iiit'
p2
S'interview'
p3
S'links'
p4
tp5
c__builtin__
set
p6
((lp7
S'study'
p8
atp9
Rp10
s(S'2015'
p11
S'scripting'
p12
tp13
g6
((lp14
g2
aS'sem1'
p15
atp16
Rp17
s(g1
tp18
g6
((lp19
g3
ag8
ag2
ag4
atp20
Rp21
s(g1
g2
g4
tp22
g6
((lp23
g3
ag8
atp24
Rp25
s(g1
g2
g8
tp26
g6
((lp27
g3
ag4
atp28
Rp29
s(g1
g3
tp30
g6
((lp31
g8
ag2
ag4
atp32
Rp33
s(g2
g3
g8
tp34
g6
((lp35
g4
atp36
Rp37
s(g3
g4
g8
tp38
g6
((lp39
g2
atp40
Rp41
s(g12
tp42
g6
((lp43
g2
ag15
atp44
Rp45
s(g1
g2
tp46
g6
((lp47
g3
ag8
ag4
atp48
Rp49
s(S'bit-torrent'
p50
g2
tp51
g6
((lp52
S'client'
p53
atp54
Rp55
s(g2
g4
g8
S'web'
p56
tp57
g6
((lp58
g3
atp59
Rp60
s(g2
g3
g8
g56
tp61
g6
((lp62
g4
atp63
Rp64
s(g2
g8
g56
tp65
g6
((lp66
g3
ag4
atp67
Rp68
s(g8
g56
tp69
g6
((lp70
g3
ag2
ag4
atp71
Rp72
s(g53
g2
tp73
g6
((lp74
g50
atp75
Rp76
s(g2
g15
tp77
g6
((lp78
g12
atp79
Rp80
s(S'document'
p81
tp82
g6
((lp83
S'personal'
p84
atp85
Rp86
s(g2
g8
tp87
g6
((lp88
g3
ag4
atp89
Rp90
s(g2
g3
g4
g56
tp91
g6
((lp92
g8
atp93
Rp94
s(g11
g2
g15
tp95
g6
((lp96
g12
atp97
Rp98
s(g1
g3
g8
tp99
g6
((lp100
g2
ag4
atp101
Rp102
s(S'juhi'
p103
tp104
g6
((lp105
S'kanika'
p106
atp107
Rp108
s(g106
tp109
g6
((lp110
g103
atp111
Rp112
s(g2
g4
g8
tp113
g6
((lp114
g3
atp115
Rp116
s(g1
g3
g4
tp117
g6
((lp118
g8
ag2
atp119
Rp120
s(g1
g4
tp121
g6
((lp122
g3
ag8
ag2
atp123
Rp124
s(g8
tp125
g6
((lp126
g3
ag2
ag4
atp127
Rp128
s(g1
g8
tp129
g6
((lp130
g3
ag2
ag4
atp131
Rp132
s(g2
g3
g56
tp133
g6
((lp134
g8
ag4
atp135
Rp136
s(g3
tp137
g6
((lp138
g8
ag2
ag4
atp139
Rp140
s(g3
g8
tp141
g6
((lp142
g2
ag4
atp143
Rp144
s(g1
g2
g3
tp145
g6
((lp146
g8
ag4
atp147
Rp148
s(g11
g15
tp149
g6
((lp150
g2
ag12
atp151
Rp152
s(g1
g3
g4
g8
tp153
g6
((lp154
g2
atp155
Rp156
s(g1
g2
g4
g8
tp157
g6
((lp158
g3
atp159
Rp160
s(g4
g8
g56
tp161
g6
((lp162
g3
ag2
atp163
Rp164
s(g1
g2
g3
g8
tp165
g6
((lp166
g4
atp167
Rp168
s(g56
tp169
g6
((lp170
g3
ag8
ag2
ag4
atp171
Rp172
s(g2
g56
tp173
g6
((lp174
g3
ag8
ag4
atp175
Rp176
s(g4
g56
tp177
g6
((lp178
g3
ag8
ag2
atp179
Rp180
s(g4
g8
tp181
g6
((lp182
g3
ag2
atp183
Rp184
s(g15
tp185
g6
((lp186
g2
ag12
atp187
Rp188
s(g11
g2
tp189
g6
((lp190
g15
ag12
atp191
Rp192
s(g3
g4
g8
g56
tp193
g6
((lp194
g2
atp195
Rp196
s(g11
g12
g15
tp197
g6
((lp198
g2
atp199
Rp200
s(g2
g12
tp201
g6
((lp202
g15
atp203
Rp204
s(g53
tp205
g6
((lp206
g2
ag50
atp207
Rp208
s(g1
g4
g8
tp209
g6
((lp210
g3
ag2
atp211
Rp212
s(g11
g2
g12
tp213
g6
((lp214
g15
atp215
Rp216
s(g50
g53
tp217
g6
((lp218
g2
atp219
Rp220
s(g2
g3
g4
tp221
g6
((lp222
g8
atp223
Rp224
s(g11
tp225
g6
((lp226
g15
ag2
ag12
atp227
Rp228
s(g2
g4
g56
tp229
g6
((lp230
g3
ag8
atp231
Rp232
s(g50
tp233
g6
((lp234
g53
ag2
atp235
Rp236
s(g3
g4
tp237
g6
((lp238
g8
ag2
atp239
Rp240
s(g84
tp241
g6
((lp242
g81
atp243
Rp244
s(g2
g4
tp245
g6
((lp246
g3
ag8
atp247
Rp248
s(g4
tp249
g6
((lp250
g3
ag8
ag2
atp251
Rp252
s(g12
g15
tp253
g6
((lp254
g2
atp255
Rp256
s(g3
g56
tp257
g6
((lp258
g8
ag2
ag4
atp259
Rp260
s(g3
g8
g56
tp261
g6
((lp262
g2
ag4
atp263
Rp264
s(g2
g3
tp265
g6
((lp266
g8
ag4
atp267
Rp268
s(g3
g4
g56
tp269
g6
((lp270
g8
ag2
atp271
Rp272
s.