(dp0
(S'd3'
p1
S'sigma'
p2
tp3
c__builtin__
set
p4
((lp5
S'web'
p6
aS'java-script'
p7
atp8
Rp9
s(g1
g7
g2
tp10
g4
((lp11
g6
atp12
Rp13
s(S'2016'
p14
tp15
g4
((lp16
S'interview'
p17
aS'links'
p18
atp19
Rp20
s(g7
g2
g6
tp21
g4
((lp22
g1
atp23
Rp24
s(g6
tp25
g4
((lp26
g7
ag2
ag1
atp27
Rp28
s(g2
tp29
g4
((lp30
g6
ag7
ag1
atp31
Rp32
s(g14
g17
tp33
g4
((lp34
g18
atp35
Rp36
s(g17
g18
tp37
g4
((lp38
g14
atp39
Rp40
s(g1
tp41
g4
((lp42
g7
atp43
Rp44
s(g1
g2
g6
tp45
g4
((lp46
g7
atp47
Rp48
s(g7
g2
tp49
g4
((lp50
g6
ag1
atp51
Rp52
s(g14
g18
tp53
g4
((lp54
g17
atp55
Rp56
s(g1
g7
g6
tp57
g4
((lp58
g2
atp59
Rp60
s(g1
g6
tp61
g4
((lp62
g7
ag2
atp63
Rp64
s(g7
g6
tp65
g4
((lp66
g2
ag1
atp67
Rp68
s(g7
tp69
g4
((lp70
g1
atp71
Rp72
s(g18
tp73
g4
((lp74
g17
ag14
atp75
Rp76
s(g2
g6
tp77
g4
((lp78
g7
ag1
atp79
Rp80
s(g17
tp81
g4
((lp82
g14
ag18
atp83
Rp84
s.